; Function Attrs: nounwind uwtable
define internal fastcc void @Prs_ManVecFree(ptr noundef nonnull captures(none) %0) unnamed_addr #0 {
  %2 = getelementptr i8, ptr %0, i64 4
  %.val8 = load i32, ptr %2, align 4
  %3 = icmp sgt i32 %.val8, 0
  br i1 %3, label %.lr.ph, label %.critedge

.lr.ph:                                           ; preds = %1
  %4 = getelementptr i8, ptr %0, i64 8
  br label %5

5:                                                ; preds = %.lr.ph, %Prs_NtkFree.exit
  %indvars.iv = phi i64 [ 0, %.lr.ph ], [ %indvars.iv.next, %Prs_NtkFree.exit ]
  %.val6 = load ptr, ptr %4, align 8
  %6 = getelementptr inbounds nuw ptr, ptr %.val6, i64 %indvars.iv
  %7 = load ptr, ptr %6, align 8
  %8 = getelementptr inbounds nuw i8, ptr %7, i64 8
  %9 = load ptr, ptr %8, align 8
  %.not.i = icmp eq ptr %9, null
  br i1 %.not.i, label %11, label %10

10:                                               ; preds = %5
  tail call void @Abc_NamDeref(ptr noundef nonnull %9) #28
  br label %11

11:                                               ; preds = %10, %5
  %12 = getelementptr inbounds nuw i8, ptr %7, i64 16
  %13 = load ptr, ptr %12, align 8
  %.not24.i = icmp eq ptr %13, null
  br i1 %.not24.i, label %15, label %14

14:                                               ; preds = %11
  tail call void @Abc_NamDeref(ptr noundef nonnull %13) #28
  br label %15

15:                                               ; preds = %14, %11
  %16 = getelementptr inbounds nuw i8, ptr %7, i64 24
  %17 = load ptr, ptr %16, align 8
  %.not25.i = icmp eq ptr %17, null
  br i1 %.not25.i, label %Hash_IntManDeref.exit.i, label %18

18:                                               ; preds = %15
  %19 = getelementptr inbounds nuw i8, ptr %17, i64 16
  %20 = load i32, ptr %19, align 8
  %21 = add nsw i32 %20, -1
  store i32 %21, ptr %19, align 8
  %22 = icmp eq i32 %21, 0
  br i1 %22, label %23, label %Hash_IntManDeref.exit.i

23:                                               ; preds = %18
  %24 = getelementptr inbounds nuw i8, ptr %17, i64 8
  %25 = load ptr, ptr %24, align 8
  %26 = getelementptr inbounds nuw i8, ptr %25, i64 8
  %27 = load ptr, ptr %26, align 8
  %.not.i.i.i.i = icmp eq ptr %27, null
  br i1 %.not.i.i.i.i, label %Vec_IntFree.exit.i.i.i, label %28

28:                                               ; preds = %23
  tail call void @free(ptr noundef nonnull %27) #28
  br label %Vec_IntFree.exit.i.i.i

Vec_IntFree.exit.i.i.i:                           ; preds = %28, %23
  tail call void @free(ptr noundef nonnull %25) #28
  %29 = load ptr, ptr %17, align 8
  %30 = getelementptr inbounds nuw i8, ptr %29, i64 8
  %31 = load ptr, ptr %30, align 8
  %.not.i4.i.i.i = icmp eq ptr %31, null
  br i1 %.not.i4.i.i.i, label %Hash_IntManStop.exit.i.i, label %32

32:                                               ; preds = %Vec_IntFree.exit.i.i.i
  tail call void @free(ptr noundef nonnull %31) #28
  br label %Hash_IntManStop.exit.i.i

Hash_IntManStop.exit.i.i:                         ; preds = %32, %Vec_IntFree.exit.i.i.i
  tail call void @free(ptr noundef nonnull %29) #28
  tail call void @free(ptr noundef nonnull %17) #28
  br label %Hash_IntManDeref.exit.i

Hash_IntManDeref.exit.i:                          ; preds = %Hash_IntManStop.exit.i.i, %18, %15
  %33 = getelementptr inbounds nuw i8, ptr %7, i64 32
  %34 = getelementptr inbounds nuw i8, ptr %7, i64 40
  %35 = load ptr, ptr %34, align 8
  %.not.i.i = icmp eq ptr %35, null
  br i1 %.not.i.i, label %Vec_IntErase.exit.i, label %36

36:                                               ; preds = %Hash_IntManDeref.exit.i
  tail call void @free(ptr noundef nonnull %35) #28
  store ptr null, ptr %34, align 8
  br label %Vec_IntErase.exit.i

Vec_IntErase.exit.i:                              ; preds = %36, %Hash_IntManDeref.exit.i
  %37 = getelementptr inbounds nuw i8, ptr %7, i64 36
  store i32 0, ptr %37, align 4
  store i32 0, ptr %33, align 8
  %38 = getelementptr inbounds nuw i8, ptr %7, i64 48
  %39 = getelementptr inbounds nuw i8, ptr %7, i64 56
  %40 = load ptr, ptr %39, align 8
  %.not.i27.i = icmp eq ptr %40, null
  br i1 %.not.i27.i, label %Vec_IntErase.exit28.i, label %41

41:                                               ; preds = %Vec_IntErase.exit.i
  tail call void @free(ptr noundef nonnull %40) #28
  store ptr null, ptr %39, align 8
  br label %Vec_IntErase.exit28.i

Vec_IntErase.exit28.i:                            ; preds = %41, %Vec_IntErase.exit.i
  %42 = getelementptr inbounds nuw i8, ptr %7, i64 52
  store i32 0, ptr %42, align 4
  store i32 0, ptr %38, align 8
  %43 = getelementptr inbounds nuw i8, ptr %7, i64 64
  %44 = getelementptr inbounds nuw i8, ptr %7, i64 72
  %45 = load ptr, ptr %44, align 8
  %.not.i29.i = icmp eq ptr %45, null
  br i1 %.not.i29.i, label %Vec_IntErase.exit30.i, label %46

46:                                               ; preds = %Vec_IntErase.exit28.i
  tail call void @free(ptr noundef nonnull %45) #28
  store ptr null, ptr %44, align 8
  br label %Vec_IntErase.exit30.i

Vec_IntErase.exit30.i:                            ; preds = %46, %Vec_IntErase.exit28.i
  %47 = getelementptr inbounds nuw i8, ptr %7, i64 68
  store i32 0, ptr %47, align 4
  store i32 0, ptr %43, align 8
  %48 = getelementptr inbounds nuw i8, ptr %7, i64 80
  %49 = getelementptr inbounds nuw i8, ptr %7, i64 88
  %50 = load ptr, ptr %49, align 8
  %.not.i31.i = icmp eq ptr %50, null
  br i1 %.not.i31.i, label %Vec_IntErase.exit32.i, label %51

51:                                               ; preds = %Vec_IntErase.exit30.i
  tail call void @free(ptr noundef nonnull %50) #28
  store ptr null, ptr %49, align 8
  br label %Vec_IntErase.exit32.i

Vec_IntErase.exit32.i:                            ; preds = %51, %Vec_IntErase.exit30.i
  %52 = getelementptr inbounds nuw i8, ptr %7, i64 84
  store i32 0, ptr %52, align 4
  store i32 0, ptr %48, align 8
  %53 = getelementptr inbounds nuw i8, ptr %7, i64 96
  %54 = getelementptr inbounds nuw i8, ptr %7, i64 104
  %55 = load ptr, ptr %54, align 8
  %.not.i33.i = icmp eq ptr %55, null
  br i1 %.not.i33.i, label %Vec_IntErase.exit34.i, label %56

56:                                               ; preds = %Vec_IntErase.exit32.i
  tail call void @free(ptr noundef nonnull %55) #28
  store ptr null, ptr %54, align 8
  br label %Vec_IntErase.exit34.i

Vec_IntErase.exit34.i:                            ; preds = %56, %Vec_IntErase.exit32.i
  %57 = getelementptr inbounds nuw i8, ptr %7, i64 100
  store i32 0, ptr %57, align 4
  store i32 0, ptr %53, align 8
  %58 = getelementptr inbounds nuw i8, ptr %7, i64 112
  %59 = getelementptr inbounds nuw i8, ptr %7, i64 120
  %60 = load ptr, ptr %59, align 8
  %.not.i35.i = icmp eq ptr %60, null
  br i1 %.not.i35.i, label %Vec_IntErase.exit36.i, label %61

61:                                               ; preds = %Vec_IntErase.exit34.i
  tail call void @free(ptr noundef nonnull %60) #28
  store ptr null, ptr %59, align 8
  br label %Vec_IntErase.exit36.i

Vec_IntErase.exit36.i:                            ; preds = %61, %Vec_IntErase.exit34.i
  %62 = getelementptr inbounds nuw i8, ptr %7, i64 116
  store i32 0, ptr %62, align 4
  store i32 0, ptr %58, align 8
  %63 = getelementptr inbounds nuw i8, ptr %7, i64 128
  %64 = getelementptr inbounds nuw i8, ptr %7, i64 136
  %65 = load ptr, ptr %64, align 8
  %.not.i37.i = icmp eq ptr %65, null
  br i1 %.not.i37.i, label %Vec_IntErase.exit38.i, label %66

66:                                               ; preds = %Vec_IntErase.exit36.i
  tail call void @free(ptr noundef nonnull %65) #28
  store ptr null, ptr %64, align 8
  br label %Vec_IntErase.exit38.i

Vec_IntErase.exit38.i:                            ; preds = %66, %Vec_IntErase.exit36.i
  %67 = getelementptr inbounds nuw i8, ptr %7, i64 132
  store i32 0, ptr %67, align 4
  store i32 0, ptr %63, align 8
  %68 = getelementptr inbounds nuw i8, ptr %7, i64 144
  %69 = getelementptr inbounds nuw i8, ptr %7, i64 152
  %70 = load ptr, ptr %69, align 8
  %.not.i39.i = icmp eq ptr %70, null
  br i1 %.not.i39.i, label %Vec_IntErase.exit40.i, label %71

71:                                               ; preds = %Vec_IntErase.exit38.i
  tail call void @free(ptr noundef nonnull %70) #28
  store ptr null, ptr %69, align 8
  br label %Vec_IntErase.exit40.i

Vec_IntErase.exit40.i:                            ; preds = %71, %Vec_IntErase.exit38.i
  %72 = getelementptr inbounds nuw i8, ptr %7, i64 148
  store i32 0, ptr %72, align 4
  store i32 0, ptr %68, align 8
  %73 = getelementptr inbounds nuw i8, ptr %7, i64 160
  %74 = getelementptr inbounds nuw i8, ptr %7, i64 168
  %75 = load ptr, ptr %74, align 8
  %.not.i41.i = icmp eq ptr %75, null
  br i1 %.not.i41.i, label %Vec_IntErase.exit42.i, label %76

76:                                               ; preds = %Vec_IntErase.exit40.i
  tail call void @free(ptr noundef nonnull %75) #28
  store ptr null, ptr %74, align 8
  br label %Vec_IntErase.exit42.i

Vec_IntErase.exit42.i:                            ; preds = %76, %Vec_IntErase.exit40.i
  %77 = getelementptr inbounds nuw i8, ptr %7, i64 164
  store i32 0, ptr %77, align 4
  store i32 0, ptr %73, align 8
  %78 = getelementptr inbounds nuw i8, ptr %7, i64 176
  %79 = getelementptr inbounds nuw i8, ptr %7, i64 184
  %80 = load ptr, ptr %79, align 8
  %.not.i43.i = icmp eq ptr %80, null
  br i1 %.not.i43.i, label %Vec_IntErase.exit44.i, label %81

81:                                               ; preds = %Vec_IntErase.exit42.i
  tail call void @free(ptr noundef nonnull %80) #28
  store ptr null, ptr %79, align 8
  br label %Vec_IntErase.exit44.i

Vec_IntErase.exit44.i:                            ; preds = %81, %Vec_IntErase.exit42.i
  %82 = getelementptr inbounds nuw i8, ptr %7, i64 180
  store i32 0, ptr %82, align 4
  store i32 0, ptr %78, align 8
  %83 = getelementptr inbounds nuw i8, ptr %7, i64 192
  %84 = getelementptr inbounds nuw i8, ptr %7, i64 200
  %85 = load ptr, ptr %84, align 8
  %.not.i45.i = icmp eq ptr %85, null
  br i1 %.not.i45.i, label %Vec_IntErase.exit46.i, label %86

86:                                               ; preds = %Vec_IntErase.exit44.i
  tail call void @free(ptr noundef nonnull %85) #28
  store ptr null, ptr %84, align 8
  br label %Vec_IntErase.exit46.i

Vec_IntErase.exit46.i:                            ; preds = %86, %Vec_IntErase.exit44.i
  %87 = getelementptr inbounds nuw i8, ptr %7, i64 196
  store i32 0, ptr %87, align 4
  store i32 0, ptr %83, align 8
  %88 = getelementptr inbounds nuw i8, ptr %7, i64 208
  %89 = getelementptr inbounds nuw i8, ptr %7, i64 216
  %90 = load ptr, ptr %89, align 8
  %.not.i47.i = icmp eq ptr %90, null
  br i1 %.not.i47.i, label %Vec_IntErase.exit48.i, label %91

91:                                               ; preds = %Vec_IntErase.exit46.i
  tail call void @free(ptr noundef nonnull %90) #28
  store ptr null, ptr %89, align 8
  br label %Vec_IntErase.exit48.i

Vec_IntErase.exit48.i:                            ; preds = %91, %Vec_IntErase.exit46.i
  %92 = getelementptr inbounds nuw i8, ptr %7, i64 212
  store i32 0, ptr %92, align 4
  store i32 0, ptr %88, align 8
  %93 = getelementptr inbounds nuw i8, ptr %7, i64 232
  %94 = load ptr, ptr %93, align 8
  %.not.i49.i = icmp eq ptr %94, null
  br i1 %.not.i49.i, label %Prs_NtkFree.exit, label %95

95:                                               ; preds = %Vec_IntErase.exit48.i
  tail call void @free(ptr noundef nonnull %94) #28
  br label %Prs_NtkFree.exit

Prs_NtkFree.exit:                                 ; preds = %Vec_IntErase.exit48.i, %95
  tail call void @free(ptr noundef nonnull %7) #28
  %indvars.iv.next = add nuw nsw i64 %indvars.iv, 1
  %.val = load i32, ptr %2, align 4
  %96 = sext i32 %.val to i64
  %97 = icmp slt i64 %indvars.iv.next, %96
  br i1 %97, label %5, label %.critedge, !llvm.loop !24

.critedge:                                        ; preds = %Prs_NtkFree.exit, %1
  %98 = getelementptr inbounds nuw i8, ptr %0, i64 8
  %99 = load ptr, ptr %98, align 8
  %.not.i7 = icmp eq ptr %99, null
  br i1 %.not.i7, label %Vec_PtrFree.exit, label %100

100:                                              ; preds = %.critedge
  tail call void @free(ptr noundef nonnull %99) #28
  br label %Vec_PtrFree.exit

Vec_PtrFree.exit:                                 ; preds = %.critedge, %100
  tail call void @free(ptr noundef nonnull %0) #28
  ret void
}